; Function Attrs: mustprogress uwtable
define hidden void @_ZN5osgeo4proj9operation14ParameterValueC2ERKNSt7__cxx1112basic_stringIcSt11char_traitsIcESaIcEEENS2_4TypeE(ptr noundef nonnull align 8 dereferenceable(40) %0, ptr noundef nonnull align 8 dereferenceable(32) %1, i32 noundef %2) unnamed_addr #4 align 2 personality ptr @__gxx_personality_v0 {
  tail call void @_ZN5osgeo4proj4util10BaseObjectC2Ev(ptr noundef nonnull align 8 dereferenceable(16) %0)
  %4 = getelementptr inbounds nuw i8, ptr %0, i64 16
  %5 = getelementptr inbounds nuw i8, ptr %0, i64 24
  store ptr getelementptr inbounds nuw inrange(-16, 32) (i8, ptr @_ZTVN5osgeo4proj9operation14ParameterValueE, i64 16), ptr %0, align 8, !tbaa !19
  store ptr getelementptr inbounds nuw inrange(-16, 24) (i8, ptr @_ZTVN5osgeo4proj9operation14ParameterValueE, i64 64), ptr %4, align 8, !tbaa !19
  store ptr getelementptr inbounds nuw inrange(-16, 24) (i8, ptr @_ZTVN5osgeo4proj9operation14ParameterValueE, i64 104), ptr %5, align 8, !tbaa !19
  tail call void @llvm.experimental.noalias.scope.decl(metadata !48)
  %6 = invoke noalias noundef nonnull dereferenceable(32) ptr @_Znwm(i64 noundef 32) #26
          to label %.noexc unwind label %11

.noexc:                                           ; preds = %3
  invoke void @_ZN5osgeo4proj9operation14ParameterValue7PrivateC2ERKNSt7__cxx1112basic_stringIcSt11char_traitsIcESaIcEEENS2_4TypeE(ptr noundef nonnull align 8 dereferenceable(29) %6, ptr noundef nonnull align 8 dereferenceable(32) %1, i32 noundef %2)
          to label %9 unwind label %7, !noalias !48

7:                                                ; preds = %.noexc
  %8 = landingpad { ptr, i32 }
          cleanup
  tail call void @_ZdlPvm(ptr noundef nonnull %6, i64 noundef 32) #24, !noalias !48
  br label %.body

9:                                                ; preds = %.noexc
  %10 = getelementptr inbounds nuw i8, ptr %0, i64 32
  store ptr %6, ptr %10, align 8, !tbaa !3, !alias.scope !48
  ret void

11:                                               ; preds = %3
  %12 = landingpad { ptr, i32 }
          cleanup
  br label %.body

.body:                                            ; preds = %7, %11
  %eh.lpad-body = phi { ptr, i32 } [ %12, %11 ], [ %8, %7 ]
  tail call void @_ZN5osgeo4proj4util11IComparableD2Ev(ptr noundef nonnull align 8 dereferenceable(8) %5) #25
  tail call void @_ZN5osgeo4proj2io14IWKTExportableD2Ev(ptr noundef nonnull align 8 dereferenceable(8) %4) #25
  tail call void @_ZN5osgeo4proj4util10BaseObjectD2Ev(ptr noundef nonnull align 8 dereferenceable(16) %0) #25
  resume { ptr, i32 } %eh.lpad-body
}